Certificate:
    Data:
        Version: 1 (0x0)
        Serial Number:
            ad:df:51:b4:31:d5:1d:a8
    Signature Algorithm: sha1WithRSAEncryption
        Issuer: C=US, ST=CA, L=Santa Clara, O=Real Time Innovations, CN=RTI CA/emailAddress=secure@rti.com
        Validity
            Not Before: Apr 25 14:52:44 2016 GMT
            Not After : Apr 25 14:52:44 2017 GMT
        Subject: C=US, ST=CA, O=Real Time Innovations, CN=dtlsexample2/emailAddress=you@rti.com
        Subject Public Key Info:
            Public Key Algorithm: rsaEncryption
                Public-Key: (2048 bit)
                Modulus:
                    00:d1:9c:67:53:95:9d:77:36:f3:47:2e:5c:66:64:
                    26:9c:4d:55:8e:2d:f5:a4:7c:d7:6d:a9:08:ab:57:
                    1e:32:60:53:ab:d0:99:86:54:a5:09:af:3c:e5:34:
                    bc:2e:ba:1a:92:11:21:a0:1e:52:cf:dd:93:d3:18:
                    7c:6a:cf:56:8e:c8:af:9a:01:d8:e2:54:94:f2:2c:
                    75:96:58:25:1b:be:67:c6:66:c0:09:0e:9a:1c:02:
                    81:c4:bc:a8:49:ea:d3:a7:79:63:75:a1:5d:55:d9:
                    8a:cb:d6:94:d3:5f:5c:ae:24:6d:2a:f2:62:d9:4c:
                    d4:c8:ce:8d:bc:c3:d5:d4:a2:37:d7:51:70:d9:4b:
                    c4:ed:69:c7:92:9e:b5:5c:64:20:e8:da:93:54:fa:
                    a9:a6:74:1c:80:c4:c4:9a:12:5a:3d:da:67:de:60:
                    d1:78:d4:28:63:cc:68:ce:c4:77:81:06:b1:08:eb:
                    9b:c5:0c:9a:52:93:bb:74:24:da:7b:3f:5c:de:ac:
                    ed:4c:bf:7a:63:30:8e:10:49:e0:12:66:c2:68:7c:
                    8c:de:33:d8:75:21:e1:ff:da:0e:ac:89:25:ff:09:
                    20:ac:d4:46:58:85:28:a6:ca:f8:a2:20:f6:1c:07:
                    62:5b:69:23:5c:11:0b:b3:51:98:32:2e:5d:81:a6:
                    cf:c1
                Exponent: 65537 (0x10001)
    Signature Algorithm: sha1WithRSAEncryption
         c8:ef:95:29:81:38:53:47:8a:6c:bc:58:23:d7:ff:5e:3e:9e:
         b9:28:0b:23:89:f7:9a:b6:c7:e1:bb:2b:4e:7a:c1:65:43:87:
         f7:cb:4d:0a:ab:72:a2:1f:d1:b9:cd:36:ae:01:62:0c:44:c2:
         8e:71:84:7f:26:3f:d6:2f:ac:c6:37:3f:d5:49:f6:c3:37:9b:
         20:f3:b0:c2:f7:7b:c6:99:14:d8:3c:5d:c9:94:9f:43:95:7e:
         4e:58:63:03:aa:a2:8d:92:b4:3b:5d:e2:1c:3f:11:d4:ea:09:
         50:14:1c:1a:6e:99:d9:dd:10:81:d7:76:26:cc:52:39:f6:89:
         54:ad:5f:53:40:be:dd:76:97:f6:8b:b1:84:99:27:4b:a0:de:
         c9:85:22:1e:37:e0:c4:3b:01:00:4e:75:40:e6:7e:db:a0:8d:
         0a:20:5a:44:07:38:18:ab:78:d1:80:9e:e4:b0:69:6f:d7:25:
         a2:44:4c:2e:09:f8:1f:74:c5:56:13:7c:32:45:cc:b6:e0:22:
         9e:ef:d4:67:32:a1:4f:c8:b7:33:97:9d:14:26:0e:f6:33:cc:
         4e:a2:26:10:77:14:01:06:f7:5f:04:f8:24:8b:37:d3:4b:c2:
         c4:21:fe:9c:1c:43:f8:bf:86:2d:3c:c5:7b:f0:63:1f:6f:56:
         4c:c8:4f:59
-----BEGIN CERTIFICATE-----
MIIDajCCAlICCQCt31G0MdUdqDANBgkqhkiG9w0BAQUFADCBgDELMAkGA1UEBhMC
VVMxCzAJBgNVBAgMAkNBMRQwEgYDVQQHDAtTYW50YSBDbGFyYTEeMBwGA1UECgwV
UmVhbCBUaW1lIElubm92YXRpb25zMQ8wDQYDVQQDDAZSVEkgQ0ExHTAbBgkqhkiG
9w0BCQEWDnNlY3VyZUBydGkuY29tMB4XDTE2MDQyNTE0NTI0NFoXDTE3MDQyNTE0
NTI0NFowbTELMAkGA1UEBhMCVVMxCzAJBgNVBAgMAkNBMR4wHAYDVQQKDBVSZWFs
IFRpbWUgSW5ub3ZhdGlvbnMxFTATBgNVBAMMDGR0bHNleGFtcGxlMjEaMBgGCSqG
SIb3DQEJARYLeW91QHJ0aS5jb20wggEiMA0GCSqGSIb3DQEBAQUAA4IBDwAwggEK
AoIBAQDRnGdTlZ13NvNHLlxmZCacTVWOLfWkfNdtqQirVx4yYFOr0JmGVKUJrzzl
NLwuuhqSESGgHlLP3ZPTGHxqz1aOyK+aAdjiVJTyLHWWWCUbvmfGZsAJDpocAoHE
vKhJ6tOneWN1oV1V2YrL1pTTX1yuJG0q8mLZTNTIzo28w9XUojfXUXDZS8TtaceS
nrVcZCDo2pNU+qmmdByAxMSaElo92mfeYNF41ChjzGjOxHeBBrEI65vFDJpSk7t0
JNp7P1zerO1Mv3pjMI4QSeASZsJofIzeM9h1IeH/2g6siSX/CSCs1EZYhSimyvii
IPYcB2JbaSNcEQuzUZgyLl2Bps/BAgMBAAEwDQYJKoZIhvcNAQEFBQADggEBAMjv
lSmBOFNHimy8WCPX/14+nrkoCyOJ95q2x+G7K056wWVDh/fLTQqrcqIf0bnNNq4B
YgxEwo5xhH8mP9YvrMY3P9VJ9sM3myDzsML3e8aZFNg8XcmUn0OVfk5YYwOqoo2S
tDtd4hw/EdTqCVAUHBpumdndEIHXdibMUjn2iVStX1NAvt12l/aLsYSZJ0ug3smF
Ih434MQ7AQBOdUDmftugjQogWkQHOBireNGAnuSwaW/XJaJETC4J+B90xVYTfDJF
zLbgIp7v1GcyoU/ItzOXnRQmDvYzzE6iJhB3FAEG918E+CSLN9NLwsQh/pwcQ/i/
hi08xXvwYx9vVkzIT1k=
-----END CERTIFICATE-----
-----BEGIN PRIVATE KEY-----
MIIEvAIBADANBgkqhkiG9w0BAQEFAASCBKYwggSiAgEAAoIBAQDRnGdTlZ13NvNH
LlxmZCacTVWOLfWkfNdtqQirVx4yYFOr0JmGVKUJrzzlNLwuuhqSESGgHlLP3ZPT
GHxqz1aOyK+aAdjiVJTyLHWWWCUbvmfGZsAJDpocAoHEvKhJ6tOneWN1oV1V2YrL
1pTTX1yuJG0q8mLZTNTIzo28w9XUojfXUXDZS8TtaceSnrVcZCDo2pNU+qmmdByA
xMSaElo92mfeYNF41ChjzGjOxHeBBrEI65vFDJpSk7t0JNp7P1zerO1Mv3pjMI4Q
SeASZsJofIzeM9h1IeH/2g6siSX/CSCs1EZYhSimyviiIPYcB2JbaSNcEQuzUZgy
Ll2Bps/BAgMBAAECggEAT4OyWq3N7zRkMyNuH9VsJCzeALKElaJaIppV1JGWvet2
sh3Or3uao8LbKePIYz1r6O8gv1nhdkMK2bBXOjlvD3knzBdZS/pkCj49WQwU/6JK
QaQmwwjMA0YcLiKXAHtZURWmWjAddPyyP0Mmb8ykHtdopjsOrnoL2iUo9WugySkU
UrxFYhnXdTSI7m3Z9COSnUccvzNS+A2d+P5Jsl+fsNvjLBbLmkShDdNfXnKnd77L
bomOrJkW//fjCATZdy0UEkPAXzyO4fT7YXVvsB4RoIxOc2btYzyJ3nG1O3egjYLS
HYD0lxaZk5t+MM7ymtHS12ZQ/EpKhdgUMu6lvMjBNQKBgQD1m6ly35AeatMSTf4y
xhOFS2M2tDCuWZ+fBGP5losxjW8pJKylDm/9KaICxkDqBr1z9ab3C//DDUQ437QS
DCBJ2MDoZIZORYioc3xA7wTPp6/zu0v/tLGGBOy5CAyQmJydQJHjSUYziC307/R2
ppIkVEZ7oF9PZ1AdZrGwbx6ztwKBgQDaetWD2KVHb2JoLEQT+WO+Ig52pWF+YViv
oI9Zn7lDxBSqV5zNSfZ9T+37inmrDBpP6nMvUoCTa+qJBD/VyhJIVrnv4/tI3Eet
CO0ekkFxROSfJyeO1hrmvGApnBNDWaQh92KAzC2O/+VazsHwCoQ/tt3dl4RmDlby
SLlKAiTIRwKBgAOE3nGp6Fu3Nhz+BxVdJyxyvxIqlMP6vsG9g10xHf9wwlX5k4ut
4EblUM/vXUC9JfvCWkkR3/FAgGi8M81KZTAJrgHmZtI6RtH7DZ20jwIWqfu5BEa+
pQiBi46/Icb0mNHb+fsisqHMYrQut/b3PgLNPlFJI/R0S36QWR1pCiyTAoGAesNU
oE4mqNociH5/Dl4uvpJyYBaTjqjyZVUp12lZd4uBNSofsHaj60vzZEkuDn+xdUA+
0tNf7fZQhgb+O4nc9grNVc9bzlgAamk+m9QAs73LXOZqYudJnGcy/Y52gHypLnDM
R6Ty4IxHetv8u32dTBPb3PybZ6EdF+znOH+13VcCgYAaZDXHX284B3+OlpznVhff
51jmGBCS4y707bartESxd/AgkJAUcpb345NTtiIv7KzuNSEOjmryCkcz5mJ1XqcC
1d6NJsTvLg888ewngc9XnsvTWsSSBbmsq8IzsroOLE0Nh25YbcxsiV9LGUgMwvXf
Z8o7/vswUZp21kqvPIJoBw==
-----END PRIVATE KEY-----
