Certificate:
    Data:
        Version: 1 (0x0)
        Serial Number:
            ad:df:51:b4:31:d5:1d:a7
    Signature Algorithm: sha1WithRSAEncryption
        Issuer: C=US, ST=CA, L=Santa Clara, O=Real Time Innovations, CN=RTI CA/emailAddress=secure@rti.com
        Validity
            Not Before: Apr 25 14:52:38 2016 GMT
            Not After : Apr 25 14:52:38 2017 GMT
        Subject: C=US, ST=CA, O=Real Time Innovations, CN=dtlsexample/emailAddress=me@rti.com
        Subject Public Key Info:
            Public Key Algorithm: rsaEncryption
                Public-Key: (2048 bit)
                Modulus:
                    00:cb:e7:b1:7e:be:f8:23:5f:8c:f1:34:90:ec:34:
                    82:62:74:b4:4f:7a:26:2c:e9:56:63:15:85:bf:c6:
                    91:f6:69:3e:d0:9b:d5:4e:3c:ae:3e:71:be:4f:c7:
                    69:ad:cd:6b:0e:b8:16:64:f1:3d:dc:57:f6:af:f5:
                    83:2d:f6:06:cb:f9:e4:a5:57:61:6d:bc:36:db:1f:
                    12:b4:65:62:70:43:b6:6e:e3:d3:0e:6c:3f:e8:ca:
                    57:17:e5:ab:25:67:b5:60:39:cf:52:69:a4:5d:d2:
                    cd:47:63:ef:97:d6:f4:d2:7a:10:3a:cc:b0:63:78:
                    eb:51:1a:f6:fc:19:1b:97:a5:55:fe:5e:95:57:d7:
                    c4:1a:11:d1:39:b0:d4:ab:c3:45:1a:d4:2d:59:d9:
                    e5:a8:12:ba:22:68:1f:63:22:db:0a:5e:ef:d9:80:
                    19:d6:98:79:58:ed:bc:80:4e:d8:dd:67:d8:b4:d8:
                    a3:a9:79:22:4e:b6:68:0c:c4:d0:1d:70:ce:ed:f3:
                    45:2d:2b:dd:63:a0:3e:e2:70:fe:71:15:7a:ec:83:
                    75:15:52:50:f0:72:26:6a:09:69:a5:42:bf:4c:21:
                    01:3b:d6:05:3f:db:34:4a:e8:c8:db:ad:91:5c:bd:
                    20:55:8d:45:a9:ce:9e:09:16:dc:93:f3:1b:2f:17:
                    b6:29
                Exponent: 65537 (0x10001)
    Signature Algorithm: sha1WithRSAEncryption
         31:59:ee:74:4a:6f:e4:ba:3e:2e:15:08:d6:15:c4:ce:6a:c9:
         6f:dd:4c:85:8d:3b:78:ec:1c:f3:7c:21:8d:d3:67:3c:ca:9d:
         ed:53:f1:96:56:44:d2:a0:99:f4:89:8e:de:f8:fd:d3:9f:e4:
         f0:53:fb:e5:a9:cb:e7:05:b0:75:74:b2:9c:46:8f:6c:bb:b7:
         cc:34:ec:a3:05:73:c0:d8:05:b1:0e:02:dd:2d:6e:45:fa:c5:
         63:d0:d6:4c:b3:14:e1:5c:2a:61:44:57:35:4e:71:c3:b4:cd:
         32:92:86:93:09:54:61:58:80:5e:d3:81:dc:f9:c2:69:70:dd:
         8d:4c:06:60:50:ad:82:61:4e:a2:98:61:18:94:6b:dd:8e:2b:
         39:68:7c:d4:75:96:1a:f5:2e:ec:69:06:55:0b:de:cf:a0:78:
         0f:19:9f:ba:b8:ed:ca:36:39:3e:60:e7:33:b0:b9:16:db:a1:
         7b:ae:0b:b1:a1:c4:f7:49:6a:2e:e4:7f:5f:0b:91:ac:39:2e:
         0c:16:bb:01:61:9f:c1:7c:51:47:54:c7:0d:ab:88:45:a5:a9:
         db:2a:31:69:43:fe:4c:8c:95:0d:4d:f8:6d:94:5d:80:91:fb:
         68:7a:01:44:3c:05:fe:21:6d:71:91:7c:b1:67:96:27:61:c8:
         56:3c:35:5c
-----BEGIN CERTIFICATE-----
MIIDaDCCAlACCQCt31G0MdUdpzANBgkqhkiG9w0BAQUFADCBgDELMAkGA1UEBhMC
VVMxCzAJBgNVBAgMAkNBMRQwEgYDVQQHDAtTYW50YSBDbGFyYTEeMBwGA1UECgwV
UmVhbCBUaW1lIElubm92YXRpb25zMQ8wDQYDVQQDDAZSVEkgQ0ExHTAbBgkqhkiG
9w0BCQEWDnNlY3VyZUBydGkuY29tMB4XDTE2MDQyNTE0NTIzOFoXDTE3MDQyNTE0
NTIzOFowazELMAkGA1UEBhMCVVMxCzAJBgNVBAgMAkNBMR4wHAYDVQQKDBVSZWFs
IFRpbWUgSW5ub3ZhdGlvbnMxFDASBgNVBAMMC2R0bHNleGFtcGxlMRkwFwYJKoZI
hvcNAQkBFgptZUBydGkuY29tMIIBIjANBgkqhkiG9w0BAQEFAAOCAQ8AMIIBCgKC
AQEAy+exfr74I1+M8TSQ7DSCYnS0T3omLOlWYxWFv8aR9mk+0JvVTjyuPnG+T8dp
rc1rDrgWZPE93Ff2r/WDLfYGy/nkpVdhbbw22x8StGVicEO2buPTDmw/6MpXF+Wr
JWe1YDnPUmmkXdLNR2Pvl9b00noQOsywY3jrURr2/Bkbl6VV/l6VV9fEGhHRObDU
q8NFGtQtWdnlqBK6ImgfYyLbCl7v2YAZ1ph5WO28gE7Y3WfYtNijqXkiTrZoDMTQ
HXDO7fNFLSvdY6A+4nD+cRV67IN1FVJQ8HImaglppUK/TCEBO9YFP9s0SujI262R
XL0gVY1Fqc6eCRbck/MbLxe2KQIDAQABMA0GCSqGSIb3DQEBBQUAA4IBAQAxWe50
Sm/kuj4uFQjWFcTOaslv3UyFjTt47BzzfCGN02c8yp3tU/GWVkTSoJn0iY7e+P3T
n+TwU/vlqcvnBbB1dLKcRo9su7fMNOyjBXPA2AWxDgLdLW5F+sVj0NZMsxThXCph
RFc1TnHDtM0ykoaTCVRhWIBe04Hc+cJpcN2NTAZgUK2CYU6imGEYlGvdjis5aHzU
dZYa9S7saQZVC97PoHgPGZ+6uO3KNjk+YOczsLkW26F7rguxocT3SWou5H9fC5Gs
OS4MFrsBYZ/BfFFHVMcNq4hFpanbKjFpQ/5MjJUNTfhtlF2AkftoegFEPAX+IW1x
kXyxZ5YnYchWPDVc
-----END CERTIFICATE-----
-----BEGIN PRIVATE KEY-----
MIIEvQIBADANBgkqhkiG9w0BAQEFAASCBKcwggSjAgEAAoIBAQDL57F+vvgjX4zx
NJDsNIJidLRPeiYs6VZjFYW/xpH2aT7Qm9VOPK4+cb5Px2mtzWsOuBZk8T3cV/av
9YMt9gbL+eSlV2FtvDbbHxK0ZWJwQ7Zu49MObD/oylcX5aslZ7VgOc9SaaRd0s1H
Y++X1vTSehA6zLBjeOtRGvb8GRuXpVX+XpVX18QaEdE5sNSrw0Ua1C1Z2eWoEroi
aB9jItsKXu/ZgBnWmHlY7byATtjdZ9i02KOpeSJOtmgMxNAdcM7t80UtK91joD7i
cP5xFXrsg3UVUlDwciZqCWmlQr9MIQE71gU/2zRK6MjbrZFcvSBVjUWpzp4JFtyT
8xsvF7YpAgMBAAECggEAUtHRwzRX3y5BNftu3bHaP5k9X4aymM1RvD8SqzlBMf+/
dsXE1tlIwK48aXUKlIB5+mmFFwzxXl0QIpoq5PEoA5OFbi7WsNagxVGSrFj9qbGn
GNVKdXI8ZxZAV8F+SVwdTG9OqR+llkI4BMYvm9HAcPkJPIjFIDIOCkxUg0LDdU0F
jLW3WfR3iQSxHhXYGCszOkbKWWN+I4ku1QJ8s+OMGNYuPw8JpuNC68g2ELp9sgNT
IPAzzJSF96BpYS0u4Zc6C5cnDidwVmpz+xpr73PHbnLmW4bX1WforB0kRtTeFXKG
tmri1WehQVu420uLgMVVkPRNsy5zOA73uhZoGtN2LQKBgQDwy3R26ErdZCUNwkfZ
d+NVfDbv+DNEvxBK47mlNrlKSN+KzG1wpToTshq+k3EVfrQ+N5IrTxtwFoPHD6EV
admo64QFmANSA2Ceu/+eR+JMFRhBYjqPwHUUeKnKMhqAKcer2FSLR1lPG8CrsYVM
VQ50rhTEXdw7KV9do3Yey5udAwKBgQDYx+bH+IKzyG+OV922hrH2R5t5S3mk1W94
gR0xb1/cob0vM72qve827lEuNriPTqZ5gm1JooBe2L5WdaWtHVcLNUnSWP+DRSPC
wdB4VIS85RJtcluIe2stMqDBnrZLGE2Au+HKSmwTvbtU8bhCmnsNRBGV0Kmg2g9h
OztT1eKqYwKBgHKZAYaNqwOOY6wWqEcxLXpDsYmnYA75t3FMy897KdfWsrzF6dfQ
asFw5BWK6ijGslVh8Si3b2F69aBJKeqdA7/GxoA7BmmDvfoNkuvrXiHDcFW9wA0m
FRJ3EqduDPqt5587R5E5laF2nc2YoM3hNQ4Gw09pNCTb3c0cvFyPnjGtAoGAUL07
ZjVXsNAxRGnTaP0H4TtQW7/RoaPg7ZfhIJ1jrdALnz39IU+2fdYLJFQ7LxzTAiSi
wa8lcq31TkxpFW39Em6ZfR+qouCobgwzse2Atr32vA7AqreU9nOJzjNnn9aAXzca
5HYNhNjAoeWZhCz3MbytdAgQdZlh6wvdj970mhMCgYEAtOfB4rNst1ipr/ss5P4O
wh73xiCMLU2SS3Z31hVFNbpDzWHXSB11UoobUU1bYrZQ8ZSwge/Q3XVVLT3CIRJk
KRaLq4WS5QwXDWDm2Exci7061h8qwIyeUEhrtapUpdmK4fcA6DtziIhhZDnUt3GD
DK74cPapsPSMDFtt2tNkdK4=
-----END PRIVATE KEY-----
